     1 00000000                                 [FORMAT "WCOFF"]
     2 00000000                                 [INSTRSET "i486p"]
     3 00000000                                 [OPTIMIZE 1]
     4 00000000                                 [OPTION 1]
     5 00000000                                 [BITS 32]
     6 00000000                                 	EXTERN	_io_out8
     7 00000000                                 	EXTERN	_boxfill8
     8 00000000                                 	EXTERN	_putfonts8_asc
     9 00000000                                 	EXTERN	_io_hlt
    10 00000000                                 [FILE "int.c"]
    11                                          [SECTION .text]
    12 00000000                                 	GLOBAL	_init_pic
    13 00000000                                 _init_pic:
    14 00000000 55                              	PUSH	EBP
    15 00000001 89 E5                           	MOV	EBP,ESP
    16 00000003 68 000000FF                     	PUSH	255
    17 00000008 6A 21                           	PUSH	33
    18 0000000A E8 [00000000]                   	CALL	_io_out8
    19 0000000F 68 000000FF                     	PUSH	255
    20 00000014 68 000000A1                     	PUSH	161
    21 00000019 E8 [00000000]                   	CALL	_io_out8
    22 0000001E 6A 11                           	PUSH	17
    23 00000020 6A 20                           	PUSH	32
    24 00000022 E8 [00000000]                   	CALL	_io_out8
    25 00000027 6A 20                           	PUSH	32
    26 00000029 6A 21                           	PUSH	33
    27 0000002B E8 [00000000]                   	CALL	_io_out8
    28 00000030 83 C4 20                        	ADD	ESP,32
    29 00000033 6A 04                           	PUSH	4
    30 00000035 6A 21                           	PUSH	33
    31 00000037 E8 [00000000]                   	CALL	_io_out8
    32 0000003C 6A 01                           	PUSH	1
    33 0000003E 6A 21                           	PUSH	33
    34 00000040 E8 [00000000]                   	CALL	_io_out8
    35 00000045 6A 11                           	PUSH	17
    36 00000047 68 000000A0                     	PUSH	160
    37 0000004C E8 [00000000]                   	CALL	_io_out8
    38 00000051 6A 28                           	PUSH	40
    39 00000053 68 000000A1                     	PUSH	161
    40 00000058 E8 [00000000]                   	CALL	_io_out8
    41 0000005D 83 C4 20                        	ADD	ESP,32
    42 00000060 6A 02                           	PUSH	2
    43 00000062 68 000000A1                     	PUSH	161
    44 00000067 E8 [00000000]                   	CALL	_io_out8
    45 0000006C 6A 01                           	PUSH	1
    46 0000006E 68 000000A1                     	PUSH	161
    47 00000073 E8 [00000000]                   	CALL	_io_out8
    48 00000078 68 000000FB                     	PUSH	251
    49 0000007D 6A 21                           	PUSH	33
    50 0000007F E8 [00000000]                   	CALL	_io_out8
    51 00000084 68 000000FF                     	PUSH	255
    52 00000089 68 000000A1                     	PUSH	161
    53 0000008E E8 [00000000]                   	CALL	_io_out8
    54 00000093 C9                              	LEAVE
    55 00000094 C3                              	RET
    56                                          [SECTION .data]
    57 00000000                                 LC0:
    58 00000000 49 4E 54 20 32 31 20 28 49 52   	DB	"INT 21 (IRQ-1) : PS/2 keyboard",0x00
       0000000A 51 2D 31 29 20 3A 20 50 53 2F 
       00000014 32 20 6B 65 79 62 6F 61 72 64 
       0000001E 00 
    59                                          [SECTION .text]
    60 00000095                                 	GLOBAL	_inthandler21
    61 00000095                                 _inthandler21:
    62 00000095 55                              	PUSH	EBP
    63 00000096 89 E5                           	MOV	EBP,ESP
    64 00000098 6A 0F                           	PUSH	15
    65 0000009A 68 000000FF                     	PUSH	255
    66 0000009F 6A 00                           	PUSH	0
    67 000000A1 6A 00                           	PUSH	0
    68 000000A3 6A 00                           	PUSH	0
    69 000000A5 0F BF 05 00000FF4               	MOVSX	EAX,WORD [4084]
    70 000000AC 50                              	PUSH	EAX
    71 000000AD FF 35 00000FF8                  	PUSH	DWORD [4088]
    72 000000B3 E8 [00000000]                   	CALL	_boxfill8
    73 000000B8 68 [00000000]                   	PUSH	LC0
    74 000000BD 6A 07                           	PUSH	7
    75 000000BF 6A 00                           	PUSH	0
    76 000000C1 6A 00                           	PUSH	0
    77 000000C3 0F BF 05 00000FF4               	MOVSX	EAX,WORD [4084]
    78 000000CA 50                              	PUSH	EAX
    79 000000CB FF 35 00000FF8                  	PUSH	DWORD [4088]
    80 000000D1 E8 [00000000]                   	CALL	_putfonts8_asc
    81 000000D6 83 C4 34                        	ADD	ESP,52
    82 000000D9                                 L3:
    83 000000D9 E8 [00000000]                   	CALL	_io_hlt
    84 000000DE EB F9                           	JMP	L3
    85                                          [SECTION .data]
    86 0000001F                                 LC1:
    87 0000001F 49 4E 54 20 32 43 20 28 49 52   	DB	"INT 2C (IRQ-12) : PS/2 mouse",0x00
       00000029 51 2D 31 32 29 20 3A 20 50 53 
       00000033 2F 32 20 6D 6F 75 73 65 00 
    88                                          [SECTION .text]
    89 000000E0                                 	GLOBAL	_inthandler2c
    90 000000E0                                 _inthandler2c:
    91 000000E0 55                              	PUSH	EBP
    92 000000E1 89 E5                           	MOV	EBP,ESP
    93 000000E3 6A 0F                           	PUSH	15
    94 000000E5 68 000000FF                     	PUSH	255
    95 000000EA 6A 00                           	PUSH	0
    96 000000EC 6A 00                           	PUSH	0
    97 000000EE 6A 00                           	PUSH	0
    98 000000F0 0F BF 05 00000FF4               	MOVSX	EAX,WORD [4084]
    99 000000F7 50                              	PUSH	EAX
   100 000000F8 FF 35 00000FF8                  	PUSH	DWORD [4088]
   101 000000FE E8 [00000000]                   	CALL	_boxfill8
   102 00000103 68 [0000001F]                   	PUSH	LC1
   103 00000108 6A 07                           	PUSH	7
   104 0000010A 6A 00                           	PUSH	0
   105 0000010C 6A 00                           	PUSH	0
   106 0000010E 0F BF 05 00000FF4               	MOVSX	EAX,WORD [4084]
   107 00000115 50                              	PUSH	EAX
   108 00000116 FF 35 00000FF8                  	PUSH	DWORD [4088]
   109 0000011C E8 [00000000]                   	CALL	_putfonts8_asc
   110 00000121 83 C4 34                        	ADD	ESP,52
   111 00000124                                 L7:
   112 00000124 E8 [00000000]                   	CALL	_io_hlt
   113 00000129 EB F9                           	JMP	L7
   114 0000012B                                 	GLOBAL	_inthandler27
   115 0000012B                                 _inthandler27:
   116 0000012B 55                              	PUSH	EBP
   117 0000012C 89 E5                           	MOV	EBP,ESP
   118 0000012E 6A 67                           	PUSH	103
   119 00000130 6A 20                           	PUSH	32
   120 00000132 E8 [00000000]                   	CALL	_io_out8
   121 00000137 C9                              	LEAVE
   122 00000138 C3                              	RET
